; Function Attrs: mustprogress nounwind uwtable
define dso_local void @_ZNK5clang13FullSourceLoc14getPresumedLocEb(ptr dead_on_unwind noalias writable sret(%"class.clang::PresumedLoc") align 8 %0, ptr nocapture noundef nonnull readonly align 8 dereferenceable(16) %1, i1 noundef zeroext %2) local_unnamed_addr #0 align 2 {
  %4 = load i32, ptr %1, align 8
  %.not = icmp eq i32 %4, 0
  br i1 %.not, label %5, label %6

5:                                                ; preds = %3
  tail call void @llvm.memset.p0.i64(ptr noundef nonnull align 8 dereferenceable(24) %0, i8 0, i64 24, i1 false)
  br label %9

6:                                                ; preds = %3
  %7 = getelementptr inbounds nuw i8, ptr %1, i64 8
  %8 = load ptr, ptr %7, align 8
  tail call void @_ZNK5clang13SourceManager14getPresumedLocENS_14SourceLocationEb(ptr dead_on_unwind writable sret(%"class.clang::PresumedLoc") align 8 %0, ptr noundef nonnull align 8 dereferenceable(696) %8, i32 %4, i1 noundef zeroext %2) #10
  br label %9

9:                                                ; preds = %6, %5
  ret void
}